; Function Attrs: mustprogress uwtable
define noundef ptr @_ZNK11OpenImageIO6v3_1_011ColorConfig21getDefaultDisplayNameEv(ptr noundef nonnull readonly align 8 captures(none) dereferenceable(8) %0) local_unnamed_addr #5 align 2 {
  %2 = load ptr, ptr %0, align 8, !tbaa !140
  %3 = load ptr, ptr %2, align 8, !tbaa !30
  %4 = icmp ne ptr %3, null
  %5 = load i32, ptr @_ZN11OpenImageIO6v3_1_0L12disable_ocioE, align 4
  %6 = icmp eq i32 %5, 0
  %or.cond.not = select i1 %4, i1 %6, i1 false
  br i1 %or.cond.not, label %7, label %9

7:                                                ; preds = %1
  %8 = tail call noundef ptr @_ZNK16OpenColorIO_v2_46Config17getDefaultDisplayEv(ptr noundef nonnull align 8 dereferenceable(8) %3)
  br label %9

9:                                                ; preds = %1, %7
  %.0 = phi ptr [ %8, %7 ], [ null, %1 ]
  ret ptr %.0
}